; Function Attrs: mustprogress nounwind uwtable
define void @_ZN3gmx24PmeCoordinateReceiverGpuD2Ev(ptr nocapture noundef nonnull align 8 dereferenceable(8) %0) unnamed_addr #1 align 2 personality ptr @__gxx_personality_v0 {
  %2 = load ptr, ptr %0, align 8
  %.not.i = icmp eq ptr %2, null
  br i1 %.not.i, label %_ZNSt10unique_ptrIN3gmx24PmeCoordinateReceiverGpu4ImplESt14default_deleteIS2_EED2Ev.exit, label %_ZNKSt14default_deleteIN3gmx24PmeCoordinateReceiverGpu4ImplEEclEPS2_.exit.i

_ZNKSt14default_deleteIN3gmx24PmeCoordinateReceiverGpu4ImplEEclEPS2_.exit.i: ; preds = %1
  tail call void @_ZdlPv(ptr noundef nonnull %2) #4
  br label %_ZNSt10unique_ptrIN3gmx24PmeCoordinateReceiverGpu4ImplESt14default_deleteIS2_EED2Ev.exit

_ZNSt10unique_ptrIN3gmx24PmeCoordinateReceiverGpu4ImplESt14default_deleteIS2_EED2Ev.exit: ; preds = %1, %_ZNKSt14default_deleteIN3gmx24PmeCoordinateReceiverGpu4ImplEEclEPS2_.exit.i
  store ptr null, ptr %0, align 8
  ret void
}